target datalayout = "e-m:e-p270:32:32-p271:32:32-p272:64:64-i64:64-i128:128-f80:128-n8:16:32:64-S128"
target triple = "x86_64-pc-linux-gnu"

%"class.cv::Size_.1" = type { float, float }
%"class.cv::RotatedRect" = type { %"class.cv::Point_", %"class.cv::Size_.1", float }
%"class.cv::Point_" = type { float, float }

@.str.38 = private unnamed_addr constant [12 x i8] c"((ff)(ff)f)\00", align 1

; Function Attrs: mustprogress uwtable
define hidden noundef ptr @_Z13pyopencv_fromIN2cv11RotatedRectEEP7_objectRKT_(ptr noundef nonnull align 4 dereferenceable(20) %0) #4 {
  %2 = alloca ptr, align 8
  store ptr %0, ptr %2, align 8
  %3 = load ptr, ptr %2, align 8
  %4 = getelementptr inbounds %"class.cv::RotatedRect", ptr %3, i32 0, i32 0
  %5 = getelementptr inbounds %"class.cv::Point_", ptr %4, i32 0, i32 0
  %6 = load float, ptr %5, align 4
  %7 = fpext float %6 to double
  %8 = load ptr, ptr %2, align 8
  %9 = getelementptr inbounds %"class.cv::RotatedRect", ptr %8, i32 0, i32 0
  %10 = getelementptr inbounds %"class.cv::Point_", ptr %9, i32 0, i32 1
  %11 = load float, ptr %10, align 4
  %12 = fpext float %11 to double
  %13 = load ptr, ptr %2, align 8
  %14 = getelementptr inbounds %"class.cv::RotatedRect", ptr %13, i32 0, i32 1
  %15 = getelementptr inbounds %"class.cv::Size_.1", ptr %14, i32 0, i32 0
  %16 = load float, ptr %15, align 4
  %17 = fpext float %16 to double
  %18 = load ptr, ptr %2, align 8
  %19 = getelementptr inbounds %"class.cv::RotatedRect", ptr %18, i32 0, i32 1
  %20 = getelementptr inbounds %"class.cv::Size_.1", ptr %19, i32 0, i32 1
  %21 = load float, ptr %20, align 4
  %22 = fpext float %21 to double
  %23 = load ptr, ptr %2, align 8
  %24 = getelementptr inbounds %"class.cv::RotatedRect", ptr %23, i32 0, i32 2
  %25 = load float, ptr %24, align 4
  %26 = fpext float %25 to double
  %27 = call ptr (ptr, ...) @Py_BuildValue(ptr noundef @.str.38, double noundef %7, double noundef %12, double noundef %17, double noundef %22, double noundef %26)
  ret ptr %27
}